; Function Attrs: nounwind uwtable
define range(i64 0, 2) i64 @overpaid(ptr noundef captures(none) %0) local_unnamed_addr #1 {
  %2 = alloca i8, align 1
  %3 = getelementptr inbounds nuw i8, ptr %0, i64 32
  %4 = load i64, ptr %3, align 8
  %5 = inttoptr i64 %4 to ptr
  %6 = tail call ptr @pg_detoast_datum(ptr noundef %5) #18
  call void @llvm.lifetime.start.p0(i64 1, ptr nonnull %2) #18
  %7 = call i64 @GetAttributeByName(ptr noundef %6, ptr noundef nonnull @.str, ptr noundef nonnull %2) #18
  %8 = load i8, ptr %2, align 1, !range !6, !noundef !7
  %9 = trunc nuw i8 %8 to i1
  br i1 %9, label %10, label %12

10:                                               ; preds = %1
  %11 = getelementptr inbounds nuw i8, ptr %0, i64 28
  store i8 1, ptr %11, align 4
  br label %16

12:                                               ; preds = %1
  %13 = trunc i64 %7 to i32
  %14 = icmp sgt i32 %13, 699
  %15 = zext i1 %14 to i64
  br label %16

16:                                               ; preds = %12, %10
  %.0 = phi i64 [ 0, %10 ], [ %15, %12 ]
  call void @llvm.lifetime.end.p0(i64 1, ptr nonnull %2) #18
  ret i64 %.0
}